target datalayout = "e-m:e-p270:32:32-p271:32:32-p272:64:64-i64:64-i128:128-f80:128-n8:16:32:64-S128"
target triple = "x86_64-pc-linux-gnu"

%struct.AVProbeData = type { ptr, ptr, i32, ptr }

; Function Attrs: nounwind uwtable
define internal i32 @cdata_probe(ptr noundef %0) #0 {
  %2 = alloca i32, align 4
  %3 = alloca ptr, align 8
  %4 = alloca ptr, align 8
  %5 = alloca i32, align 4
  store ptr %0, ptr %3, align 8, !tbaa !4
  call void @llvm.lifetime.start.p0(i64 8, ptr %4) #5
  %6 = load ptr, ptr %3, align 8, !tbaa !4
  %7 = getelementptr inbounds nuw %struct.AVProbeData, ptr %6, i32 0, i32 1
  %8 = load ptr, ptr %7, align 8, !tbaa !9
  store ptr %8, ptr %4, align 8, !tbaa !13
  %9 = load ptr, ptr %4, align 8, !tbaa !13
  %10 = getelementptr inbounds i8, ptr %9, i64 0
  %11 = load i8, ptr %10, align 1, !tbaa !14
  %12 = zext i8 %11 to i32
  %13 = icmp eq i32 %12, 4
  br i1 %13, label %14, label %39

14:                                               ; preds = %1
  %15 = load ptr, ptr %4, align 8, !tbaa !13
  %16 = getelementptr inbounds i8, ptr %15, i64 1
  %17 = load i8, ptr %16, align 1, !tbaa !14
  %18 = zext i8 %17 to i32
  %19 = icmp eq i32 %18, 0
  br i1 %19, label %38, label %20

20:                                               ; preds = %14
  %21 = load ptr, ptr %4, align 8, !tbaa !13
  %22 = getelementptr inbounds i8, ptr %21, i64 1
  %23 = load i8, ptr %22, align 1, !tbaa !14
  %24 = zext i8 %23 to i32
  %25 = icmp eq i32 %24, 4
  br i1 %25, label %38, label %26

26:                                               ; preds = %20
  %27 = load ptr, ptr %4, align 8, !tbaa !13
  %28 = getelementptr inbounds i8, ptr %27, i64 1
  %29 = load i8, ptr %28, align 1, !tbaa !14
  %30 = zext i8 %29 to i32
  %31 = icmp eq i32 %30, 12
  br i1 %31, label %38, label %32

32:                                               ; preds = %26
  %33 = load ptr, ptr %4, align 8, !tbaa !13
  %34 = getelementptr inbounds i8, ptr %33, i64 1
  %35 = load i8, ptr %34, align 1, !tbaa !14
  %36 = zext i8 %35 to i32
  %37 = icmp eq i32 %36, 20
  br i1 %37, label %38, label %39

38:                                               ; preds = %32, %26, %20, %14
  store i32 12, ptr %2, align 4
  store i32 1, ptr %5, align 4
  br label %40

39:                                               ; preds = %32, %1
  store i32 0, ptr %2, align 4
  store i32 1, ptr %5, align 4
  br label %40

40:                                               ; preds = %39, %38
  call void @llvm.lifetime.end.p0(i64 8, ptr %4) #5
  %41 = load i32, ptr %2, align 4
  ret i32 %41
}