; Function Attrs: mustprogress nofree norecurse nosync nounwind willreturn memory(read, inaccessiblemem: none) uwtable
define internal range(i32 0, 13) i32 @cdata_probe(ptr noundef readonly captures(none) %0) #0 {
  %2 = getelementptr inbounds nuw i8, ptr %0, i64 8
  %3 = load ptr, ptr %2, align 8, !tbaa !4
  %4 = load i8, ptr %3, align 1, !tbaa !11
  %5 = icmp eq i8 %4, 4
  br i1 %5, label %6, label %12

6:                                                ; preds = %1
  %7 = getelementptr inbounds nuw i8, ptr %3, i64 1
  %8 = load i8, ptr %7, align 1, !tbaa !11
  %9 = tail call i8 @llvm.fshl.i8(i8 %8, i8 %8, i8 6)
  %10 = icmp ult i8 %9, 6
  br i1 %10, label %switch.lookup, label %12

switch.lookup:                                    ; preds = %6
  %11 = zext nneg i8 %9 to i64
  %switch.gep = getelementptr inbounds nuw [6 x i32], ptr @switch.table.cdata_probe, i64 0, i64 %11
  %switch.load = load i32, ptr %switch.gep, align 4
  br label %12

12:                                               ; preds = %1, %6, %switch.lookup
  %.0 = phi i32 [ %switch.load, %switch.lookup ], [ 0, %6 ], [ 0, %1 ]
  ret i32 %.0
}